/*
 * Intel ACPI Component Architecture
 * AML/ASL+ Disassembler version 20180105 (64-bit version)
 * Copyright (c) 2000 - 2018 Intel Corporation
 * 
 * Disassembly of FPDT.aml, Wed May 16 16:30:04 2018
 *
 * ACPI Data Table [FPDT]
 *
 * Format: [HexOffset DecimalOffset ByteLength]  FieldName : FieldValue
 */

[000h 0000   4]                    Signature : "FPDT"    [Firmware Performance Data Table]
[004h 0004   4]                 Table Length : 00000034
[008h 0008   1]                     Revision : 01
[009h 0009   1]                     Checksum : 34
[00Ah 0010   6]                       Oem ID : "QCOM  "
[010h 0016   8]                 Oem Table ID : "QCOMEDK2"
[018h 0024   4]                 Oem Revision : 00000001
[01Ch 0028   4]              Asl Compiler ID : "QCOM"
[020h 0032   4]        Asl Compiler Revision : 00000001


[024h 0036   2]                Subtable Type : 0000
[026h 0038   1]                       Length : 10
[027h 0039   1]                     Revision : 01
[028h 0040   4]                     Reserved : 00000000
[02Ch 0044   8]     FPDT Boot Record Address : 000000009D737000

Raw Table Data: Length 52 (0x34)

  0000: 46 50 44 54 34 00 00 00 01 34 51 43 4F 4D 20 20  // FPDT4....4QCOM  
  0010: 51 43 4F 4D 45 44 4B 32 01 00 00 00 51 43 4F 4D  // QCOMEDK2....QCOM
  0020: 01 00 00 00 00 00 10 01 00 00 00 00 00 70 73 9D  // .............ps.
  0030: 00 00 00 00                                      // ....
